target datalayout = "e-m:e-p270:32:32-p271:32:32-p272:64:64-i64:64-i128:128-f80:128-n8:16:32:64-S128"
target triple = "x86_64-pc-linux-gnu"

; Function Attrs: nounwind uwtable
define hidden zeroext i1 @SDL_endswith(ptr noundef %0, ptr noundef %1) #0 {
  %3 = alloca i1, align 1
  %4 = alloca ptr, align 8
  %5 = alloca ptr, align 8
  %6 = alloca i64, align 8
  %7 = alloca i64, align 8
  %8 = alloca i32, align 4
  store ptr %0, ptr %4, align 8
  store ptr %1, ptr %5, align 8
  call void @llvm.lifetime.start.p0(i64 8, ptr %6) #6
  %9 = load ptr, ptr %4, align 8
  %10 = icmp ne ptr %9, null
  br i1 %10, label %11, label %14

11:                                               ; preds = %2
  %12 = load ptr, ptr %4, align 8
  %13 = call i64 @SDL_strlen_REAL(ptr noundef %12)
  br label %15

14:                                               ; preds = %2
  br label %15

15:                                               ; preds = %14, %11
  %16 = phi i64 [ %13, %11 ], [ 0, %14 ]
  store i64 %16, ptr %6, align 8
  call void @llvm.lifetime.start.p0(i64 8, ptr %7) #6
  %17 = load ptr, ptr %5, align 8
  %18 = icmp ne ptr %17, null
  br i1 %18, label %19, label %22

19:                                               ; preds = %15
  %20 = load ptr, ptr %5, align 8
  %21 = call i64 @SDL_strlen_REAL(ptr noundef %20)
  br label %23

22:                                               ; preds = %15
  br label %23

23:                                               ; preds = %22, %19
  %24 = phi i64 [ %21, %19 ], [ 0, %22 ]
  store i64 %24, ptr %7, align 8
  %25 = load i64, ptr %7, align 8
  %26 = icmp ugt i64 %25, 0
  br i1 %26, label %27, label %44

27:                                               ; preds = %23
  %28 = load i64, ptr %7, align 8
  %29 = load i64, ptr %6, align 8
  %30 = icmp ule i64 %28, %29
  br i1 %30, label %31, label %44

31:                                               ; preds = %27
  %32 = load ptr, ptr %4, align 8
  %33 = load i64, ptr %6, align 8
  %34 = getelementptr inbounds nuw i8, ptr %32, i64 %33
  %35 = load i64, ptr %7, align 8
  %36 = sub i64 0, %35
  %37 = getelementptr inbounds i8, ptr %34, i64 %36
  %38 = load ptr, ptr %5, align 8
  %39 = load i64, ptr %7, align 8
  %40 = call i32 @SDL_memcmp_REAL(ptr noundef %37, ptr noundef %38, i64 noundef %39)
  %41 = icmp eq i32 %40, 0
  br i1 %41, label %42, label %43

42:                                               ; preds = %31
  store i1 true, ptr %3, align 1
  store i32 1, ptr %8, align 4
  br label %45

43:                                               ; preds = %31
  br label %44

44:                                               ; preds = %43, %27, %23
  store i1 false, ptr %3, align 1
  store i32 1, ptr %8, align 4
  br label %45

45:                                               ; preds = %44, %42
  call void @llvm.lifetime.end.p0(i64 8, ptr %7) #6
  call void @llvm.lifetime.end.p0(i64 8, ptr %6) #6
  %46 = load i1, ptr %3, align 1
  ret i1 %46
}