; Function Attrs: nounwind uwtable
define hidden noundef zeroext i1 @SDL_endswith(ptr noundef %0, ptr noundef %1) local_unnamed_addr #4 {
  %.not = icmp eq ptr %0, null
  br i1 %.not, label %6, label %3

3:                                                ; preds = %2
  %4 = tail call i64 @SDL_strlen_REAL(ptr noundef nonnull %0) #10
  %5 = freeze i64 %4
  br label %6

6:                                                ; preds = %2, %3
  %7 = phi i64 [ %5, %3 ], [ 0, %2 ]
  %.not16 = icmp eq ptr %1, null
  br i1 %.not16, label %.thread, label %8

8:                                                ; preds = %6
  %9 = tail call i64 @SDL_strlen_REAL(ptr noundef nonnull %1) #10
  %10 = add i64 %9, -1
  %or.cond.not = icmp ult i64 %10, %7
  br i1 %or.cond.not, label %11, label %.thread

11:                                               ; preds = %8
  %12 = getelementptr inbounds nuw i8, ptr %0, i64 %7
  %13 = sub i64 0, %9
  %14 = getelementptr inbounds i8, ptr %12, i64 %13
  %15 = tail call i32 @SDL_memcmp_REAL(ptr noundef nonnull %14, ptr noundef nonnull %1, i64 noundef %9) #10
  %16 = icmp eq i32 %15, 0
  br i1 %16, label %17, label %.thread

.thread:                                          ; preds = %6, %11, %8
  br label %17

17:                                               ; preds = %11, %.thread
  %.0 = phi i1 [ false, %.thread ], [ true, %11 ]
  ret i1 %.0
}